(lp0
F-0.35621172017335556
aF-1.5565427591878858
aF-3.1549561354541926
aF-1.5985139762868377
aF0.22433882085796278
aF2.50957082770006
aF4.187257933165622
aF-0.13933843524999628
aF2.090049702616398
aF4.10194358883491
a.